; Function Attrs: mustprogress noreturn uwtable
define void @_ZN2cv4gapi3wip4draw12FTTextRender7putTextERNS_3MatERKNSt7__cxx1112basic_stringIwSt11char_traitsIwESaIwEEERKNS_6Point_IiEEi(ptr noundef nonnull readnone align 8 captures(none) dereferenceable(16) %0, ptr noundef nonnull readnone align 8 captures(none) dereferenceable(96) %1, ptr noundef nonnull readnone align 8 captures(none) dereferenceable(32) %2, ptr noundef nonnull readnone align 4 captures(none) dereferenceable(8) %3, i32 noundef %4) local_unnamed_addr #3 align 2 personality ptr @__gxx_personality_v0 {
  %6 = alloca %"class.std::runtime_error", align 8
  call void @llvm.lifetime.start.p0(i64 16, ptr nonnull %6) #9
  call void @_ZNSt13runtime_errorC1EPKc(ptr noundef nonnull align 8 dereferenceable(16) %6, ptr noundef nonnull @.str)
  invoke void @_ZN2cv4util11throw_errorISt13runtime_errorEEvOT_(ptr noundef nonnull align 8 dereferenceable(16) %6) #10
          to label %7 unwind label %8

7:                                                ; preds = %5
  unreachable

8:                                                ; preds = %5
  %9 = landingpad { ptr, i32 }
          cleanup
  call void @_ZNSt13runtime_errorD1Ev(ptr noundef nonnull align 8 dereferenceable(16) %6) #9
  call void @llvm.lifetime.end.p0(i64 16, ptr nonnull %6) #9
  resume { ptr, i32 } %9
}